target datalayout = "e-m:e-p270:32:32-p271:32:32-p272:64:64-i64:64-i128:128-f80:128-n8:16:32:64-S128"
target triple = "x86_64-pc-linux-gnu"

%struct.event_base = type { ptr, ptr, %struct.event_changelist, ptr, %struct.evsig_info, i32, i32, i32, i32, i32, i32, i32, i32, i32, i32, i32, i32, ptr, i32, %struct.evcallback_list, ptr, i32, i32, %struct.event_signal_map, %struct.event_signal_map, %struct.min_heap, %struct.timeval, %struct.evutil_monotonic_timer, %struct.timeval, i64, i64, ptr, ptr, i32, ptr, i32, %struct.timeval, i32, i32, i32, [2 x i32], %struct.event, ptr, %struct.evutil_weakrand_state, %struct.once_event_list, [2 x %struct.evwatch_list] }
%struct.event_changelist = type { ptr, i32, i32 }
%struct.evsig_info = type { %struct.event, [2 x i32], i32, i32, [65 x ptr], ptr, i32 }
%struct.evcallback_list = type { ptr, ptr }
%struct.event_signal_map = type { ptr, i32 }
%struct.min_heap = type { ptr, i64, i64 }
%struct.evutil_monotonic_timer = type { i32, %struct.timeval, %struct.timeval }
%struct.timeval = type { i64, i64 }
%struct.event = type { %struct.event_callback, %union.anon.0, i32, i16, i16, ptr, %union.anon.2, %struct.timeval }
%struct.event_callback = type { %struct.anon, i16, i8, i8, %union.anon, ptr }
%struct.anon = type { ptr, ptr }
%union.anon = type { ptr }
%union.anon.0 = type { %struct.anon.1 }
%struct.anon.1 = type { ptr, ptr }
%union.anon.2 = type { %struct.anon.3 }
%struct.anon.3 = type { %struct.anon.4, %struct.timeval }
%struct.anon.4 = type { ptr, ptr }
%struct.evutil_weakrand_state = type { i32 }
%struct.once_event_list = type { ptr }
%struct.evwatch_list = type { ptr, ptr }
%struct.selectop = type { i32, i32, i32, ptr, ptr, ptr, ptr }
%struct.fd_set = type { [16 x i64] }

; Function Attrs: nounwind uwtable
define internal i32 @select_del(ptr noundef %0, i32 noundef %1, i16 noundef signext %2, i16 noundef signext %3, ptr noundef %4) #0 {
  %6 = alloca i32, align 4
  %7 = alloca ptr, align 8
  %8 = alloca i32, align 4
  %9 = alloca i16, align 2
  %10 = alloca i16, align 2
  %11 = alloca ptr, align 8
  %12 = alloca ptr, align 8
  %13 = alloca i32, align 4
  store ptr %0, ptr %7, align 8
  store i32 %1, ptr %8, align 4
  store i16 %2, ptr %9, align 2
  store i16 %3, ptr %10, align 2
  store ptr %4, ptr %11, align 8
  call void @llvm.lifetime.start.p0(i64 8, ptr %12) #6
  %14 = load ptr, ptr %7, align 8
  %15 = getelementptr inbounds nuw %struct.event_base, ptr %14, i32 0, i32 1
  %16 = load ptr, ptr %15, align 8
  store ptr %16, ptr %12, align 8
  br label %17

17:                                               ; preds = %5
  br label %18

18:                                               ; preds = %17
  br label %19

19:                                               ; preds = %18
  br label %20

20:                                               ; preds = %19
  br label %21

21:                                               ; preds = %20
  br label %22

22:                                               ; preds = %21
  %23 = load ptr, ptr %12, align 8
  %24 = getelementptr inbounds nuw %struct.selectop, ptr %23, i32 0, i32 0
  %25 = load i32, ptr %24, align 8
  %26 = load i32, ptr %8, align 4
  %27 = icmp slt i32 %25, %26
  br i1 %27, label %28, label %32

28:                                               ; preds = %22
  br label %29

29:                                               ; preds = %28
  br label %30

30:                                               ; preds = %29
  br label %31

31:                                               ; preds = %30
  store i32 0, ptr %6, align 4
  store i32 1, ptr %13, align 4
  br label %78

32:                                               ; preds = %22
  %33 = load i16, ptr %10, align 2
  %34 = sext i16 %33 to i32
  %35 = and i32 %34, 2
  %36 = icmp ne i32 %35, 0
  br i1 %36, label %37, label %53

37:                                               ; preds = %32
  %38 = load i32, ptr %8, align 4
  %39 = srem i32 %38, 64
  %40 = zext i32 %39 to i64
  %41 = shl i64 1, %40
  %42 = xor i64 %41, -1
  %43 = load ptr, ptr %12, align 8
  %44 = getelementptr inbounds nuw %struct.selectop, ptr %43, i32 0, i32 3
  %45 = load ptr, ptr %44, align 8
  %46 = getelementptr inbounds nuw %struct.fd_set, ptr %45, i32 0, i32 0
  %47 = load i32, ptr %8, align 4
  %48 = sdiv i32 %47, 64
  %49 = sext i32 %48 to i64
  %50 = getelementptr inbounds [16 x i64], ptr %46, i64 0, i64 %49
  %51 = load i64, ptr %50, align 8
  %52 = and i64 %51, %42
  store i64 %52, ptr %50, align 8
  br label %53

53:                                               ; preds = %37, %32
  %54 = load i16, ptr %10, align 2
  %55 = sext i16 %54 to i32
  %56 = and i32 %55, 4
  %57 = icmp ne i32 %56, 0
  br i1 %57, label %58, label %74

58:                                               ; preds = %53
  %59 = load i32, ptr %8, align 4
  %60 = srem i32 %59, 64
  %61 = zext i32 %60 to i64
  %62 = shl i64 1, %61
  %63 = xor i64 %62, -1
  %64 = load ptr, ptr %12, align 8
  %65 = getelementptr inbounds nuw %struct.selectop, ptr %64, i32 0, i32 4
  %66 = load ptr, ptr %65, align 8
  %67 = getelementptr inbounds nuw %struct.fd_set, ptr %66, i32 0, i32 0
  %68 = load i32, ptr %8, align 4
  %69 = sdiv i32 %68, 64
  %70 = sext i32 %69 to i64
  %71 = getelementptr inbounds [16 x i64], ptr %67, i64 0, i64 %70
  %72 = load i64, ptr %71, align 8
  %73 = and i64 %72, %63
  store i64 %73, ptr %71, align 8
  br label %74

74:                                               ; preds = %58, %53
  br label %75

75:                                               ; preds = %74
  br label %76

76:                                               ; preds = %75
  br label %77

77:                                               ; preds = %76
  store i32 0, ptr %6, align 4
  store i32 1, ptr %13, align 4
  br label %78

78:                                               ; preds = %77, %31
  call void @llvm.lifetime.end.p0(i64 8, ptr %12) #6
  %79 = load i32, ptr %6, align 4
  ret i32 %79
}