; Function Attrs: mustprogress nofree norecurse nosync nounwind willreturn memory(readwrite, inaccessiblemem: none) uwtable
define internal noundef i32 @select_del(ptr noundef readonly captures(none) %0, i32 noundef %1, i16 signext %2, i16 noundef signext %3, ptr readnone captures(none) %4) #1 {
  %6 = getelementptr inbounds nuw i8, ptr %0, i64 8
  %7 = load ptr, ptr %6, align 8
  %8 = load i32, ptr %7, align 8
  %9 = icmp slt i32 %8, %1
  br i1 %9, label %38, label %10

10:                                               ; preds = %5
  %11 = and i16 %3, 2
  %.not = icmp eq i16 %11, 0
  br i1 %.not, label %24, label %12

12:                                               ; preds = %10
  %13 = srem i32 %1, 64
  %14 = zext nneg i32 %13 to i64
  %15 = shl nuw i64 1, %14
  %16 = xor i64 %15, -1
  %17 = getelementptr inbounds nuw i8, ptr %7, i64 16
  %18 = load ptr, ptr %17, align 8
  %19 = sdiv i32 %1, 64
  %20 = sext i32 %19 to i64
  %21 = getelementptr inbounds [16 x i64], ptr %18, i64 0, i64 %20
  %22 = load i64, ptr %21, align 8
  %23 = and i64 %22, %16
  store i64 %23, ptr %21, align 8
  br label %24

24:                                               ; preds = %12, %10
  %25 = and i16 %3, 4
  %.not11 = icmp eq i16 %25, 0
  br i1 %.not11, label %38, label %26

26:                                               ; preds = %24
  %27 = srem i32 %1, 64
  %28 = zext nneg i32 %27 to i64
  %29 = shl nuw i64 1, %28
  %30 = xor i64 %29, -1
  %31 = getelementptr inbounds nuw i8, ptr %7, i64 24
  %32 = load ptr, ptr %31, align 8
  %33 = sdiv i32 %1, 64
  %34 = sext i32 %33 to i64
  %35 = getelementptr inbounds [16 x i64], ptr %32, i64 0, i64 %34
  %36 = load i64, ptr %35, align 8
  %37 = and i64 %36, %30
  store i64 %37, ptr %35, align 8
  br label %38

38:                                               ; preds = %26, %24, %5
  ret i32 0
}